target datalayout = "e-m:e-p270:32:32-p271:32:32-p272:64:64-i64:64-i128:128-f80:128-n8:16:32:64-S128"
target triple = "x86_64-pc-linux-gnu"

%struct.PROV_ECDSA_CTX = type { ptr, ptr, ptr, i32, i8, [256 x i8], i64, [50 x i8], ptr, ptr, i64, ptr, i64, ptr, ptr, i32 }
%struct.wpacket_st = type { ptr, ptr, i64, i64, i64, ptr, i8 }

@.str = private unnamed_addr constant [59 x i8] c"../openssl/providers/implementations/signature/ecdsa_sig.c\00", align 1
@__func__.ecdsa_setup_md = private unnamed_addr constant [15 x i8] c"ecdsa_setup_md\00", align 1
@.str.5 = private unnamed_addr constant [30 x i8] c"%s exceeds name buffer length\00", align 1
@.str.6 = private unnamed_addr constant [24 x i8] c"%s could not be fetched\00", align 1
@.str.7 = private unnamed_addr constant [26 x i8] c"%s has invalid md size %d\00", align 1
@.str.8 = private unnamed_addr constant [10 x i8] c"digest=%s\00", align 1
@.str.9 = private unnamed_addr constant [16 x i8] c"digest %s != %s\00", align 1

; Function Attrs: nounwind uwtable
define internal i32 @ecdsa_setup_md(ptr noundef %0, ptr noundef %1, ptr noundef %2, ptr noundef %3) #0 {
  %5 = alloca i32, align 4
  %6 = alloca ptr, align 8
  %7 = alloca ptr, align 8
  %8 = alloca ptr, align 8
  %9 = alloca ptr, align 8
  %10 = alloca ptr, align 8
  %11 = alloca i64, align 8
  %12 = alloca i32, align 4
  %13 = alloca i32, align 4
  %14 = alloca %struct.wpacket_st, align 8
  %15 = alloca ptr, align 8
  %16 = alloca i32, align 4
  store ptr %0, ptr %6, align 8, !tbaa !3
  store ptr %1, ptr %7, align 8, !tbaa !7
  store ptr %2, ptr %8, align 8, !tbaa !7
  store ptr %3, ptr %9, align 8, !tbaa !7
  call void @llvm.lifetime.start.p0(i64 8, ptr %10) #7
  store ptr null, ptr %10, align 8, !tbaa !36
  call void @llvm.lifetime.start.p0(i64 8, ptr %11) #7
  call void @llvm.lifetime.start.p0(i64 4, ptr %12) #7
  call void @llvm.lifetime.start.p0(i64 4, ptr %13) #7
  call void @llvm.lifetime.start.p0(i64 56, ptr %14) #7
  call void @llvm.lifetime.start.p0(i64 8, ptr %15) #7
  store ptr null, ptr %15, align 8, !tbaa !7
  %17 = load ptr, ptr %7, align 8, !tbaa !7
  %18 = icmp eq ptr %17, null
  br i1 %18, label %19, label %20

19:                                               ; preds = %4
  store i32 1, ptr %5, align 4
  store i32 1, ptr %16, align 4
  br label %156

20:                                               ; preds = %4
  %21 = load ptr, ptr %7, align 8, !tbaa !7
  %22 = call i64 @strlen(ptr noundef %21) #8
  store i64 %22, ptr %11, align 8, !tbaa !23
  %23 = load i64, ptr %11, align 8, !tbaa !23
  %24 = icmp uge i64 %23, 50
  br i1 %24, label %25, label %27

25:                                               ; preds = %20
  call void @ERR_new()
  call void @ERR_set_debug(ptr noundef @.str, i32 noundef 181, ptr noundef @__func__.ecdsa_setup_md)
  %26 = load ptr, ptr %7, align 8, !tbaa !7
  call void (i32, i32, ptr, ...) @ERR_set_error(i32 noundef 57, i32 noundef 122, ptr noundef @.str.5, ptr noundef %26)
  store i32 0, ptr %5, align 4
  store i32 1, ptr %16, align 4
  br label %156

27:                                               ; preds = %20
  %28 = load ptr, ptr %8, align 8, !tbaa !7
  %29 = icmp eq ptr %28, null
  br i1 %29, label %30, label %34

30:                                               ; preds = %27
  %31 = load ptr, ptr %6, align 8, !tbaa !3
  %32 = getelementptr inbounds nuw %struct.PROV_ECDSA_CTX, ptr %31, i32 0, i32 1
  %33 = load ptr, ptr %32, align 8, !tbaa !18
  store ptr %33, ptr %8, align 8, !tbaa !7
  br label %34

34:                                               ; preds = %30, %27
  %35 = load ptr, ptr %6, align 8, !tbaa !3
  %36 = getelementptr inbounds nuw %struct.PROV_ECDSA_CTX, ptr %35, i32 0, i32 0
  %37 = load ptr, ptr %36, align 8, !tbaa !9
  %38 = load ptr, ptr %7, align 8, !tbaa !7
  %39 = load ptr, ptr %8, align 8, !tbaa !7
  %40 = call ptr @EVP_MD_fetch(ptr noundef %37, ptr noundef %38, ptr noundef %39)
  store ptr %40, ptr %10, align 8, !tbaa !36
  %41 = load ptr, ptr %10, align 8, !tbaa !36
  %42 = icmp eq ptr %41, null
  br i1 %42, label %43, label %45

43:                                               ; preds = %34
  call void @ERR_new()
  call void @ERR_set_debug(ptr noundef @.str, i32 noundef 189, ptr noundef @__func__.ecdsa_setup_md)
  %44 = load ptr, ptr %7, align 8, !tbaa !7
  call void (i32, i32, ptr, ...) @ERR_set_error(i32 noundef 57, i32 noundef 122, ptr noundef @.str.6, ptr noundef %44)
  store i32 0, ptr %5, align 4
  store i32 1, ptr %16, align 4
  br label %156

45:                                               ; preds = %34
  %46 = load ptr, ptr %10, align 8, !tbaa !36
  %47 = call i32 @EVP_MD_get_size(ptr noundef %46)
  store i32 %47, ptr %13, align 4, !tbaa !26
  %48 = load i32, ptr %13, align 4, !tbaa !26
  %49 = icmp sle i32 %48, 0
  br i1 %49, label %50, label %53

50:                                               ; preds = %45
  call void @ERR_new()
  call void @ERR_set_debug(ptr noundef @.str, i32 noundef 195, ptr noundef @__func__.ecdsa_setup_md)
  %51 = load ptr, ptr %7, align 8, !tbaa !7
  %52 = load i32, ptr %13, align 4, !tbaa !26
  call void (i32, i32, ptr, ...) @ERR_set_error(i32 noundef 57, i32 noundef 122, ptr noundef @.str.7, ptr noundef %51, i32 noundef %52)
  br label %154

53:                                               ; preds = %45
  %54 = load ptr, ptr %10, align 8, !tbaa !36
  %55 = call i32 @ossl_digest_get_approved_nid(ptr noundef %54)
  store i32 %55, ptr %12, align 4, !tbaa !26
  %56 = load i32, ptr %12, align 4, !tbaa !26
  %57 = icmp eq i32 %56, 0
  br i1 %57, label %58, label %60

58:                                               ; preds = %53
  call void @ERR_new()
  call void @ERR_set_debug(ptr noundef @.str, i32 noundef 201, ptr noundef @__func__.ecdsa_setup_md)
  %59 = load ptr, ptr %7, align 8, !tbaa !7
  call void (i32, i32, ptr, ...) @ERR_set_error(i32 noundef 57, i32 noundef 174, ptr noundef @.str.8, ptr noundef %59)
  br label %154

60:                                               ; preds = %53
  %61 = load ptr, ptr %10, align 8, !tbaa !36
  %62 = call i32 @EVP_MD_xof(ptr noundef %61)
  %63 = icmp ne i32 %62, 0
  br i1 %63, label %64, label %65

64:                                               ; preds = %60
  call void @ERR_new()
  call void @ERR_set_debug(ptr noundef @.str, i32 noundef 207, ptr noundef @__func__.ecdsa_setup_md)
  call void (i32, i32, ptr, ...) @ERR_set_error(i32 noundef 57, i32 noundef 183, ptr noundef null)
  br label %154

65:                                               ; preds = %60
  %66 = load ptr, ptr %6, align 8, !tbaa !3
  %67 = getelementptr inbounds nuw %struct.PROV_ECDSA_CTX, ptr %66, i32 0, i32 4
  %68 = load i8, ptr %67, align 4
  %69 = lshr i8 %68, 1
  %70 = and i8 %69, 1
  %71 = zext i8 %70 to i32
  %72 = icmp ne i32 %71, 0
  br i1 %72, label %94, label %73

73:                                               ; preds = %65
  %74 = load ptr, ptr %6, align 8, !tbaa !3
  %75 = getelementptr inbounds nuw %struct.PROV_ECDSA_CTX, ptr %74, i32 0, i32 7
  %76 = getelementptr inbounds [50 x i8], ptr %75, i64 0, i64 0
  %77 = load i8, ptr %76, align 8, !tbaa !35
  %78 = sext i8 %77 to i32
  %79 = icmp ne i32 %78, 0
  br i1 %79, label %80, label %92

80:                                               ; preds = %73
  %81 = load ptr, ptr %10, align 8, !tbaa !36
  %82 = load ptr, ptr %6, align 8, !tbaa !3
  %83 = getelementptr inbounds nuw %struct.PROV_ECDSA_CTX, ptr %82, i32 0, i32 7
  %84 = getelementptr inbounds [50 x i8], ptr %83, i64 0, i64 0
  %85 = call i32 @EVP_MD_is_a(ptr noundef %81, ptr noundef %84)
  %86 = icmp ne i32 %85, 0
  br i1 %86, label %92, label %87

87:                                               ; preds = %80
  call void @ERR_new()
  call void @ERR_set_debug(ptr noundef @.str, i32 noundef 228, ptr noundef @__func__.ecdsa_setup_md)
  %88 = load ptr, ptr %7, align 8, !tbaa !7
  %89 = load ptr, ptr %6, align 8, !tbaa !3
  %90 = getelementptr inbounds nuw %struct.PROV_ECDSA_CTX, ptr %89, i32 0, i32 7
  %91 = getelementptr inbounds [50 x i8], ptr %90, i64 0, i64 0
  call void (i32, i32, ptr, ...) @ERR_set_error(i32 noundef 57, i32 noundef 174, ptr noundef @.str.9, ptr noundef %88, ptr noundef %91)
  br label %154

92:                                               ; preds = %80, %73
  %93 = load ptr, ptr %10, align 8, !tbaa !36
  call void @EVP_MD_free(ptr noundef %93)
  store i32 1, ptr %5, align 4
  store i32 1, ptr %16, align 4
  br label %156

94:                                               ; preds = %65
  %95 = load ptr, ptr %6, align 8, !tbaa !3
  %96 = getelementptr inbounds nuw %struct.PROV_ECDSA_CTX, ptr %95, i32 0, i32 9
  %97 = load ptr, ptr %96, align 8, !tbaa !25
  call void @EVP_MD_CTX_free(ptr noundef %97)
  %98 = load ptr, ptr %6, align 8, !tbaa !3
  %99 = getelementptr inbounds nuw %struct.PROV_ECDSA_CTX, ptr %98, i32 0, i32 8
  %100 = load ptr, ptr %99, align 8, !tbaa !27
  call void @EVP_MD_free(ptr noundef %100)
  %101 = load ptr, ptr %6, align 8, !tbaa !3
  %102 = getelementptr inbounds nuw %struct.PROV_ECDSA_CTX, ptr %101, i32 0, i32 6
  store i64 0, ptr %102, align 8, !tbaa !39
  %103 = load ptr, ptr %6, align 8, !tbaa !3
  %104 = getelementptr inbounds nuw %struct.PROV_ECDSA_CTX, ptr %103, i32 0, i32 5
  %105 = getelementptr inbounds [256 x i8], ptr %104, i64 0, i64 0
  %106 = call i32 @WPACKET_init_der(ptr noundef %14, ptr noundef %105, i64 noundef 256)
  %107 = icmp ne i32 %106, 0
  br i1 %107, label %108, label %123

108:                                              ; preds = %94
  %109 = load ptr, ptr %6, align 8, !tbaa !3
  %110 = getelementptr inbounds nuw %struct.PROV_ECDSA_CTX, ptr %109, i32 0, i32 2
  %111 = load ptr, ptr %110, align 8, !tbaa !29
  %112 = load i32, ptr %12, align 4, !tbaa !26
  %113 = call i32 @ossl_DER_w_algorithmIdentifier_ECDSA_with_MD(ptr noundef %14, i32 noundef -1, ptr noundef %111, i32 noundef %112)
  %114 = icmp ne i32 %113, 0
  br i1 %114, label %115, label %123

115:                                              ; preds = %108
  %116 = call i32 @WPACKET_finish(ptr noundef %14)
  %117 = icmp ne i32 %116, 0
  br i1 %117, label %118, label %123

118:                                              ; preds = %115
  %119 = load ptr, ptr %6, align 8, !tbaa !3
  %120 = getelementptr inbounds nuw %struct.PROV_ECDSA_CTX, ptr %119, i32 0, i32 6
  %121 = call i32 @WPACKET_get_total_written(ptr noundef %14, ptr noundef %120)
  %122 = call ptr @WPACKET_get_curr(ptr noundef %14)
  store ptr %122, ptr %15, align 8, !tbaa !7
  br label %123

123:                                              ; preds = %118, %115, %108, %94
  call void @WPACKET_cleanup(ptr noundef %14)
  %124 = load ptr, ptr %15, align 8, !tbaa !7
  %125 = icmp ne ptr %124, null
  br i1 %125, label %126, label %139

126:                                              ; preds = %123
  %127 = load ptr, ptr %6, align 8, !tbaa !3
  %128 = getelementptr inbounds nuw %struct.PROV_ECDSA_CTX, ptr %127, i32 0, i32 6
  %129 = load i64, ptr %128, align 8, !tbaa !39
  %130 = icmp ne i64 %129, 0
  br i1 %130, label %131, label %139

131:                                              ; preds = %126
  %132 = load ptr, ptr %6, align 8, !tbaa !3
  %133 = getelementptr inbounds nuw %struct.PROV_ECDSA_CTX, ptr %132, i32 0, i32 5
  %134 = getelementptr inbounds [256 x i8], ptr %133, i64 0, i64 0
  %135 = load ptr, ptr %15, align 8, !tbaa !7
  %136 = load ptr, ptr %6, align 8, !tbaa !3
  %137 = getelementptr inbounds nuw %struct.PROV_ECDSA_CTX, ptr %136, i32 0, i32 6
  %138 = load i64, ptr %137, align 8, !tbaa !39
  call void @llvm.memmove.p0.p0.i64(ptr align 1 %134, ptr align 1 %135, i64 %138, i1 false)
  br label %139

139:                                              ; preds = %131, %126, %123
  %140 = load ptr, ptr %6, align 8, !tbaa !3
  %141 = getelementptr inbounds nuw %struct.PROV_ECDSA_CTX, ptr %140, i32 0, i32 9
  store ptr null, ptr %141, align 8, !tbaa !25
  %142 = load ptr, ptr %10, align 8, !tbaa !36
  %143 = load ptr, ptr %6, align 8, !tbaa !3
  %144 = getelementptr inbounds nuw %struct.PROV_ECDSA_CTX, ptr %143, i32 0, i32 8
  store ptr %142, ptr %144, align 8, !tbaa !27
  %145 = load i32, ptr %13, align 4, !tbaa !26
  %146 = sext i32 %145 to i64
  %147 = load ptr, ptr %6, align 8, !tbaa !3
  %148 = getelementptr inbounds nuw %struct.PROV_ECDSA_CTX, ptr %147, i32 0, i32 10
  store i64 %146, ptr %148, align 8, !tbaa !40
  %149 = load ptr, ptr %6, align 8, !tbaa !3
  %150 = getelementptr inbounds nuw %struct.PROV_ECDSA_CTX, ptr %149, i32 0, i32 7
  %151 = getelementptr inbounds [50 x i8], ptr %150, i64 0, i64 0
  %152 = load ptr, ptr %7, align 8, !tbaa !7
  %153 = call i64 @OPENSSL_strlcpy(ptr noundef %151, ptr noundef %152, i64 noundef 50)
  store i32 1, ptr %5, align 4
  store i32 1, ptr %16, align 4
  br label %156

154:                                              ; preds = %87, %64, %58, %50
  %155 = load ptr, ptr %10, align 8, !tbaa !36
  call void @EVP_MD_free(ptr noundef %155)
  store i32 0, ptr %5, align 4
  store i32 1, ptr %16, align 4
  br label %156

156:                                              ; preds = %154, %139, %92, %43, %25, %19
  call void @llvm.lifetime.end.p0(i64 8, ptr %15) #7
  call void @llvm.lifetime.end.p0(i64 56, ptr %14) #7
  call void @llvm.lifetime.end.p0(i64 4, ptr %13) #7
  call void @llvm.lifetime.end.p0(i64 4, ptr %12) #7
  call void @llvm.lifetime.end.p0(i64 8, ptr %11) #7
  call void @llvm.lifetime.end.p0(i64 8, ptr %10) #7
  %157 = load i32, ptr %5, align 4
  ret i32 %157
}