; Function Attrs: nounwind uwtable
define internal fastcc range(i32 0, 2) i32 @ecdsa_setup_md(ptr noundef %0, ptr noundef %1, ptr noundef %2) unnamed_addr #0 {
  %4 = alloca %struct.wpacket_st, align 8
  call void @llvm.lifetime.start.p0(i64 56, ptr nonnull %4) #8
  %5 = icmp eq ptr %1, null
  br i1 %5, label %68, label %6

6:                                                ; preds = %3
  %7 = tail call i64 @strlen(ptr noundef nonnull dereferenceable(1) %1) #9
  %8 = icmp ugt i64 %7, 49
  br i1 %8, label %9, label %10

9:                                                ; preds = %6
  tail call void @ERR_new() #8
  tail call void @ERR_set_debug(ptr noundef nonnull @.str, i32 noundef 181, ptr noundef nonnull @__func__.ecdsa_setup_md) #8
  tail call void (i32, i32, ptr, ...) @ERR_set_error(i32 noundef 57, i32 noundef 122, ptr noundef nonnull @.str.5, ptr noundef nonnull %1) #8
  br label %68

10:                                               ; preds = %6
  %11 = icmp eq ptr %2, null
  br i1 %11, label %12, label %15

12:                                               ; preds = %10
  %13 = getelementptr inbounds nuw i8, ptr %0, i64 8
  %14 = load ptr, ptr %13, align 8, !tbaa !16
  br label %15

15:                                               ; preds = %12, %10
  %.047 = phi ptr [ %14, %12 ], [ %2, %10 ]
  %16 = load ptr, ptr %0, align 8, !tbaa !3
  %17 = tail call ptr @EVP_MD_fetch(ptr noundef %16, ptr noundef nonnull %1, ptr noundef %.047) #8
  %18 = icmp eq ptr %17, null
  br i1 %18, label %19, label %20

19:                                               ; preds = %15
  tail call void @ERR_new() #8
  tail call void @ERR_set_debug(ptr noundef nonnull @.str, i32 noundef 189, ptr noundef nonnull @__func__.ecdsa_setup_md) #8
  tail call void (i32, i32, ptr, ...) @ERR_set_error(i32 noundef 57, i32 noundef 122, ptr noundef nonnull @.str.6, ptr noundef nonnull %1) #8
  br label %68

20:                                               ; preds = %15
  %21 = tail call i32 @EVP_MD_get_size(ptr noundef nonnull %17) #8
  %22 = icmp slt i32 %21, 1
  br i1 %22, label %23, label %24

23:                                               ; preds = %20
  tail call void @ERR_new() #8
  tail call void @ERR_set_debug(ptr noundef nonnull @.str, i32 noundef 195, ptr noundef nonnull @__func__.ecdsa_setup_md) #8
  tail call void (i32, i32, ptr, ...) @ERR_set_error(i32 noundef 57, i32 noundef 122, ptr noundef nonnull @.str.7, ptr noundef nonnull %1, i32 noundef %21) #8
  br label %67

24:                                               ; preds = %20
  %25 = tail call i32 @ossl_digest_get_approved_nid(ptr noundef nonnull %17) #8
  %26 = icmp eq i32 %25, 0
  br i1 %26, label %27, label %28

27:                                               ; preds = %24
  tail call void @ERR_new() #8
  tail call void @ERR_set_debug(ptr noundef nonnull @.str, i32 noundef 201, ptr noundef nonnull @__func__.ecdsa_setup_md) #8
  tail call void (i32, i32, ptr, ...) @ERR_set_error(i32 noundef 57, i32 noundef 174, ptr noundef nonnull @.str.8, ptr noundef nonnull %1) #8
  br label %67

28:                                               ; preds = %24
  %29 = tail call i32 @EVP_MD_xof(ptr noundef nonnull %17) #8
  %.not = icmp eq i32 %29, 0
  br i1 %.not, label %31, label %30

30:                                               ; preds = %28
  tail call void @ERR_new() #8
  tail call void @ERR_set_debug(ptr noundef nonnull @.str, i32 noundef 207, ptr noundef nonnull @__func__.ecdsa_setup_md) #8
  tail call void (i32, i32, ptr, ...) @ERR_set_error(i32 noundef 57, i32 noundef 183, ptr noundef null) #8
  br label %67

31:                                               ; preds = %28
  %32 = getelementptr inbounds nuw i8, ptr %0, i64 28
  %33 = load i8, ptr %32, align 4
  %34 = and i8 %33, 2
  %.not54 = icmp eq i8 %34, 0
  br i1 %.not54, label %35, label %42

35:                                               ; preds = %31
  %36 = getelementptr inbounds nuw i8, ptr %0, i64 296
  %37 = load i8, ptr %36, align 8, !tbaa !34
  %.not55 = icmp eq i8 %37, 0
  br i1 %.not55, label %41, label %38

38:                                               ; preds = %35
  %39 = tail call i32 @EVP_MD_is_a(ptr noundef nonnull %17, ptr noundef nonnull %36) #8
  %.not56 = icmp eq i32 %39, 0
  br i1 %.not56, label %40, label %41

40:                                               ; preds = %38
  tail call void @ERR_new() #8
  tail call void @ERR_set_debug(ptr noundef nonnull @.str, i32 noundef 228, ptr noundef nonnull @__func__.ecdsa_setup_md) #8
  tail call void (i32, i32, ptr, ...) @ERR_set_error(i32 noundef 57, i32 noundef 174, ptr noundef nonnull @.str.9, ptr noundef nonnull %1, ptr noundef nonnull %36) #8
  br label %67

41:                                               ; preds = %38, %35
  tail call void @EVP_MD_free(ptr noundef nonnull %17) #8
  br label %68

42:                                               ; preds = %31
  %43 = getelementptr inbounds nuw i8, ptr %0, i64 360
  %44 = load ptr, ptr %43, align 8, !tbaa !18
  tail call void @EVP_MD_CTX_free(ptr noundef %44) #8
  %45 = getelementptr inbounds nuw i8, ptr %0, i64 352
  %46 = load ptr, ptr %45, align 8, !tbaa !28
  tail call void @EVP_MD_free(ptr noundef %46) #8
  %47 = getelementptr inbounds nuw i8, ptr %0, i64 288
  store i64 0, ptr %47, align 8, !tbaa !38
  %48 = getelementptr inbounds nuw i8, ptr %0, i64 29
  %49 = call i32 @WPACKET_init_der(ptr noundef nonnull %4, ptr noundef nonnull %48, i64 noundef 256) #8
  %.not57 = icmp eq i32 %49, 0
  br i1 %.not57, label %.thread, label %50

50:                                               ; preds = %42
  %51 = getelementptr inbounds nuw i8, ptr %0, i64 16
  %52 = load ptr, ptr %51, align 8, !tbaa !19
  %53 = call i32 @ossl_DER_w_algorithmIdentifier_ECDSA_with_MD(ptr noundef nonnull %4, i32 noundef -1, ptr noundef %52, i32 noundef %25) #8
  %.not58 = icmp eq i32 %53, 0
  br i1 %.not58, label %.thread, label %54

54:                                               ; preds = %50
  %55 = call i32 @WPACKET_finish(ptr noundef nonnull %4) #8
  %.not59 = icmp eq i32 %55, 0
  br i1 %.not59, label %.thread, label %56

.thread:                                          ; preds = %54, %50, %42
  call void @WPACKET_cleanup(ptr noundef nonnull %4) #8
  br label %62

56:                                               ; preds = %54
  %57 = call i32 @WPACKET_get_total_written(ptr noundef nonnull %4, ptr noundef nonnull %47) #8
  %58 = call ptr @WPACKET_get_curr(ptr noundef nonnull %4) #8
  call void @WPACKET_cleanup(ptr noundef nonnull %4) #8
  %.not60 = icmp eq ptr %58, null
  br i1 %.not60, label %62, label %59

59:                                               ; preds = %56
  %60 = load i64, ptr %47, align 8, !tbaa !38
  %.not61 = icmp eq i64 %60, 0
  br i1 %.not61, label %62, label %61

61:                                               ; preds = %59
  call void @llvm.memmove.p0.p0.i64(ptr nonnull align 1 %48, ptr nonnull align 1 %58, i64 %60, i1 false)
  br label %62

62:                                               ; preds = %.thread, %61, %59, %56
  store ptr null, ptr %43, align 8, !tbaa !18
  store ptr %17, ptr %45, align 8, !tbaa !28
  %63 = zext nneg i32 %21 to i64
  %64 = getelementptr inbounds nuw i8, ptr %0, i64 368
  store i64 %63, ptr %64, align 8, !tbaa !27
  %65 = getelementptr inbounds nuw i8, ptr %0, i64 296
  %66 = call i64 @OPENSSL_strlcpy(ptr noundef nonnull %65, ptr noundef nonnull %1, i64 noundef 50) #8
  br label %68

67:                                               ; preds = %40, %30, %27, %23
  tail call void @EVP_MD_free(ptr noundef nonnull %17) #8
  br label %68

68:                                               ; preds = %3, %67, %62, %41, %19, %9
  %.046 = phi i32 [ 0, %9 ], [ 0, %19 ], [ 0, %67 ], [ 1, %62 ], [ 1, %41 ], [ 1, %3 ]
  call void @llvm.lifetime.end.p0(i64 56, ptr nonnull %4) #8
  ret i32 %.046
}